target datalayout = "e-m:e-p270:32:32-p271:32:32-p272:64:64-i64:64-i128:128-f80:128-n8:16:32:64-S128"
target triple = "x86_64-pc-linux-gnu"

%struct.wtap_dumper = type { ptr, i32, i32, i32, i32, i8, i64, ptr, ptr, ptr, ptr, ptr, ptr, ptr, ptr, ptr, ptr, ptr, ptr, ptr, i32, i32, i32 }

; Function Attrs: null_pointer_is_valid sspstrong uwtable
define i64 @wtap_dump_file_tell(ptr noundef %0, ptr noundef %1) #0 {
  %3 = alloca i64, align 8
  %4 = alloca ptr, align 8
  %5 = alloca ptr, align 8
  %6 = alloca i64, align 8
  %7 = alloca i32, align 4
  store ptr %0, ptr %4, align 8
  store ptr %1, ptr %5, align 8
  call void @llvm.lifetime.start.p0(i64 8, ptr %6) #12
  %8 = load ptr, ptr %4, align 8
  %9 = getelementptr inbounds nuw %struct.wtap_dumper, ptr %8, i32 0, i32 4
  %10 = load i32, ptr %9, align 4
  %11 = icmp ne i32 %10, 0
  br i1 %11, label %12, label %14

12:                                               ; preds = %2
  %13 = load ptr, ptr %5, align 8
  store i32 -19, ptr %13, align 4
  store i64 -1, ptr %3, align 8
  store i32 1, ptr %7, align 4
  br label %26

14:                                               ; preds = %2
  %15 = load ptr, ptr %4, align 8
  %16 = getelementptr inbounds nuw %struct.wtap_dumper, ptr %15, i32 0, i32 0
  %17 = load ptr, ptr %16, align 8
  %18 = call i64 @ftello(ptr noundef %17)
  store i64 %18, ptr %6, align 8
  %19 = icmp eq i64 -1, %18
  br i1 %19, label %20, label %24

20:                                               ; preds = %14
  %21 = call ptr @__errno_location() #15
  %22 = load i32, ptr %21, align 4
  %23 = load ptr, ptr %5, align 8
  store i32 %22, ptr %23, align 4
  store i64 -1, ptr %3, align 8
  store i32 1, ptr %7, align 4
  br label %26

24:                                               ; preds = %14
  %25 = load i64, ptr %6, align 8
  store i64 %25, ptr %3, align 8
  store i32 1, ptr %7, align 4
  br label %26

26:                                               ; preds = %24, %20, %12
  call void @llvm.lifetime.end.p0(i64 8, ptr %6) #12
  %27 = load i64, ptr %3, align 8
  ret i64 %27
}