; Function Attrs: nofree nounwind null_pointer_is_valid sspstrong uwtable
define noundef i64 @wtap_dump_file_tell(ptr noundef readonly captures(none) %0, ptr noundef writeonly captures(none) %1) local_unnamed_addr #20 {
  %3 = getelementptr inbounds nuw i8, ptr %0, i64 20
  %4 = load i32, ptr %3, align 4
  %.not = icmp eq i32 %4, 0
  br i1 %.not, label %5, label %.sink.split

5:                                                ; preds = %2
  %6 = load ptr, ptr %0, align 8
  %7 = tail call i64 @ftello(ptr noundef %6)
  %8 = icmp eq i64 %7, -1
  br i1 %8, label %9, label %12

9:                                                ; preds = %5
  %10 = tail call ptr @__errno_location() #25
  %11 = load i32, ptr %10, align 4
  br label %.sink.split

.sink.split:                                      ; preds = %2, %9
  %.sink = phi i32 [ %11, %9 ], [ -19, %2 ]
  store i32 %.sink, ptr %1, align 4
  br label %12

12:                                               ; preds = %.sink.split, %5
  %.0 = phi i64 [ %7, %5 ], [ -1, %.sink.split ]
  ret i64 %.0
}